target datalayout = "e-m:e-p270:32:32-p271:32:32-p272:64:64-i64:64-i128:128-f80:128-n8:16:32:64-S128"
target triple = "x86_64-pc-linux-gnu"

%struct.MessageHeader = type { [4 x i8], %struct.Version, i8, i8, i32, i32, i32, ptr }
%struct.Version = type { i8, i8 }

@g_ascii_table = external constant ptr, align 8

; Function Attrs: alwaysinline nounwind
define internal ptr @memcpy.inline(ptr noalias %0, ptr noalias %1, i64 %2) #4 {
  %4 = alloca ptr, align 8
  %5 = alloca ptr, align 8
  %6 = alloca i64, align 8
  store ptr %0, ptr %4, align 8
  store ptr %1, ptr %5, align 8
  store i64 %2, ptr %6, align 8
  %7 = load ptr, ptr %4, align 8
  %8 = load ptr, ptr %5, align 8
  %9 = load i64, ptr %6, align 8
  %10 = load ptr, ptr %4, align 8
  %11 = call i64 @llvm.objectsize.i64.p0(ptr %10, i1 false, i1 true, i1 true)
  %12 = call ptr @__memcpy_chk(ptr noundef %7, ptr noundef %8, i64 noundef %9, i64 noundef %11) #14
  ret ptr %12
}

; Function Attrs: null_pointer_is_valid sspstrong uwtable
define ptr @make_printable_string(ptr noundef %0, ptr noundef %1, i32 noundef %2) #0 {
  %4 = alloca ptr, align 8
  %5 = alloca ptr, align 8
  %6 = alloca i32, align 4
  %7 = alloca i32, align 4
  %8 = alloca ptr, align 8
  store ptr %0, ptr %4, align 8
  store ptr %1, ptr %5, align 8
  store i32 %2, ptr %6, align 4
  call void @llvm.lifetime.start.p0(i64 4, ptr %7) #14
  call void @llvm.lifetime.start.p0(i64 8, ptr %8) #14
  %9 = load ptr, ptr %4, align 8
  %10 = load i32, ptr %6, align 4
  %11 = add i32 %10, 1
  %12 = zext i32 %11 to i64
  %13 = call noalias ptr @wmem_alloc0(ptr noundef %9, i64 noundef %12) #15
  store ptr %13, ptr %8, align 8
  %14 = load ptr, ptr %8, align 8
  %15 = load ptr, ptr %5, align 8
  %16 = load i32, ptr %6, align 4
  %17 = zext i32 %16 to i64
  %18 = call ptr @memcpy.inline(ptr noundef %14, ptr noundef %15, i64 noundef %17) #14
  store i32 0, ptr %7, align 4
  br label %19

19:                                               ; preds = %42, %3
  %20 = load i32, ptr %7, align 4
  %21 = load i32, ptr %6, align 4
  %22 = icmp ult i32 %20, %21
  br i1 %22, label %23, label %45

23:                                               ; preds = %19
  %24 = load ptr, ptr @g_ascii_table, align 8
  %25 = load ptr, ptr %8, align 8
  %26 = load i32, ptr %7, align 4
  %27 = zext i32 %26 to i64
  %28 = getelementptr i8, ptr %25, i64 %27
  %29 = load i8, ptr %28, align 1
  %30 = zext i8 %29 to i64
  %31 = getelementptr i16, ptr %24, i64 %30
  %32 = load i16, ptr %31, align 2
  %33 = zext i16 %32 to i32
  %34 = and i32 %33, 64
  %35 = icmp ne i32 %34, 0
  br i1 %35, label %41, label %36

36:                                               ; preds = %23
  %37 = load ptr, ptr %8, align 8
  %38 = load i32, ptr %7, align 4
  %39 = zext i32 %38 to i64
  %40 = getelementptr i8, ptr %37, i64 %39
  store i8 46, ptr %40, align 1
  br label %41

41:                                               ; preds = %36, %23
  br label %42

42:                                               ; preds = %41
  %43 = load i32, ptr %7, align 4
  %44 = add i32 %43, 1
  store i32 %44, ptr %7, align 4
  br label %19, !llvm.loop !6

45:                                               ; preds = %19
  %46 = load ptr, ptr %8, align 8
  call void @llvm.lifetime.end.p0(i64 8, ptr %8) #14
  call void @llvm.lifetime.end.p0(i64 4, ptr %7) #14
  ret ptr %46
}

; Function Attrs: null_pointer_is_valid sspstrong uwtable
define void @get_CDR_octet_seq(ptr noundef %0, ptr noundef %1, ptr noundef %2, ptr noundef %3, i32 noundef %4) #0 {
  %6 = alloca ptr, align 8
  %7 = alloca ptr, align 8
  %8 = alloca ptr, align 8
  %9 = alloca ptr, align 8
  %10 = alloca i32, align 4
  %11 = alloca ptr, align 8
  store ptr %0, ptr %6, align 8
  store ptr %1, ptr %7, align 8
  store ptr %2, ptr %8, align 8
  store ptr %3, ptr %9, align 8
  store i32 %4, ptr %10, align 4
  call void @llvm.lifetime.start.p0(i64 8, ptr %11) #14
  %12 = load ptr, ptr %7, align 8
  %13 = load ptr, ptr %9, align 8
  %14 = load i32, ptr %13, align 4
  %15 = load i32, ptr %10, align 4
  call void @tvb_ensure_bytes_exist(ptr noundef %12, i32 noundef %14, i32 noundef %15)
  %16 = load ptr, ptr %6, align 8
  %17 = load i32, ptr %10, align 4
  %18 = add i32 %17, 1
  %19 = icmp ule i32 %18, 0
  br i1 %19, label %26, label %20

20:                                               ; preds = %5
  %21 = load i32, ptr %10, align 4
  %22 = add i32 %21, 1
  %23 = zext i32 %22 to i64
  %24 = udiv i64 9223372036854775807, %23
  %25 = icmp ugt i64 1, %24
  br i1 %25, label %26, label %27

26:                                               ; preds = %20, %5
  br label %32

27:                                               ; preds = %20
  %28 = load i32, ptr %10, align 4
  %29 = add i32 %28, 1
  %30 = zext i32 %29 to i64
  %31 = mul i64 1, %30
  br label %32

32:                                               ; preds = %27, %26
  %33 = phi i64 [ 0, %26 ], [ %31, %27 ]
  %34 = call noalias ptr @wmem_alloc0(ptr noundef %16, i64 noundef %33) #15
  store ptr %34, ptr %11, align 8
  %35 = load ptr, ptr %7, align 8
  %36 = load ptr, ptr %11, align 8
  %37 = load ptr, ptr %9, align 8
  %38 = load i32, ptr %37, align 4
  %39 = load i32, ptr %10, align 4
  %40 = zext i32 %39 to i64
  %41 = call ptr @tvb_memcpy(ptr noundef %35, ptr noundef %36, i32 noundef %38, i64 noundef %40)
  %42 = load ptr, ptr %11, align 8
  %43 = load ptr, ptr %8, align 8
  store ptr %42, ptr %43, align 8
  %44 = load i32, ptr %10, align 4
  %45 = load ptr, ptr %9, align 8
  %46 = load i32, ptr %45, align 4
  %47 = add i32 %46, %44
  store i32 %47, ptr %45, align 4
  call void @llvm.lifetime.end.p0(i64 8, ptr %11) #14
  ret void
}

; Function Attrs: null_pointer_is_valid sspstrong uwtable
define zeroext i8 @get_CDR_octet(ptr noundef %0, ptr noundef %1) #0 {
  %3 = alloca ptr, align 8
  %4 = alloca ptr, align 8
  %5 = alloca i8, align 1
  store ptr %0, ptr %3, align 8
  store ptr %1, ptr %4, align 8
  call void @llvm.lifetime.start.p0(i64 1, ptr %5) #14
  %6 = load ptr, ptr %3, align 8
  %7 = load ptr, ptr %4, align 8
  %8 = load i32, ptr %7, align 4
  %9 = call zeroext i8 @tvb_get_uint8(ptr noundef %6, i32 noundef %8)
  store i8 %9, ptr %5, align 1
  %10 = load ptr, ptr %4, align 8
  %11 = load i32, ptr %10, align 4
  %12 = add i32 %11, 1
  store i32 %12, ptr %10, align 4
  %13 = load i8, ptr %5, align 1
  call void @llvm.lifetime.end.p0(i64 1, ptr %5) #14
  ret i8 %13
}

; Function Attrs: null_pointer_is_valid sspstrong uwtable
define i32 @get_CDR_wchar(ptr noundef %0, ptr noundef %1, ptr noundef %2, ptr noundef %3, ptr noundef %4) #0 {
  %6 = alloca ptr, align 8
  %7 = alloca ptr, align 8
  %8 = alloca ptr, align 8
  %9 = alloca ptr, align 8
  %10 = alloca ptr, align 8
  %11 = alloca i32, align 4
  %12 = alloca ptr, align 8
  store ptr %0, ptr %6, align 8
  store ptr %1, ptr %7, align 8
  store ptr %2, ptr %8, align 8
  store ptr %3, ptr %9, align 8
  store ptr %4, ptr %10, align 8
  call void @llvm.lifetime.start.p0(i64 4, ptr %11) #14
  call void @llvm.lifetime.start.p0(i64 8, ptr %12) #14
  %13 = load ptr, ptr %8, align 8
  store ptr null, ptr %13, align 8
  store i32 2, ptr %11, align 4
  %14 = load ptr, ptr %10, align 8
  %15 = getelementptr inbounds nuw %struct.MessageHeader, ptr %14, i32 0, i32 1
  %16 = getelementptr inbounds nuw %struct.Version, ptr %15, i32 0, i32 1
  %17 = load i8, ptr %16, align 1
  %18 = zext i8 %17 to i32
  %19 = icmp sgt i32 %18, 1
  br i1 %19, label %20, label %25

20:                                               ; preds = %5
  %21 = load ptr, ptr %7, align 8
  %22 = load ptr, ptr %9, align 8
  %23 = call zeroext i8 @get_CDR_octet(ptr noundef %21, ptr noundef %22)
  %24 = zext i8 %23 to i32
  store i32 %24, ptr %11, align 4
  br label %25

25:                                               ; preds = %20, %5
  %26 = load i32, ptr %11, align 4
  %27 = icmp sgt i32 %26, 0
  br i1 %27, label %28, label %38

28:                                               ; preds = %25
  %29 = load ptr, ptr %6, align 8
  %30 = load ptr, ptr %7, align 8
  %31 = load ptr, ptr %9, align 8
  %32 = load i32, ptr %11, align 4
  call void @get_CDR_octet_seq(ptr noundef %29, ptr noundef %30, ptr noundef %12, ptr noundef %31, i32 noundef %32)
  %33 = load ptr, ptr %6, align 8
  %34 = load ptr, ptr %12, align 8
  %35 = load i32, ptr %11, align 4
  %36 = call ptr @make_printable_string(ptr noundef %33, ptr noundef %34, i32 noundef %35)
  %37 = load ptr, ptr %8, align 8
  store ptr %36, ptr %37, align 8
  br label %38

38:                                               ; preds = %28, %25
  %39 = load ptr, ptr %10, align 8
  %40 = getelementptr inbounds nuw %struct.MessageHeader, ptr %39, i32 0, i32 1
  %41 = getelementptr inbounds nuw %struct.Version, ptr %40, i32 0, i32 1
  %42 = load i8, ptr %41, align 1
  %43 = zext i8 %42 to i32
  %44 = icmp slt i32 %43, 2
  br i1 %44, label %45, label %48

45:                                               ; preds = %38
  %46 = load i32, ptr %11, align 4
  %47 = sub i32 0, %46
  store i32 %47, ptr %11, align 4
  br label %48

48:                                               ; preds = %45, %38
  %49 = load i32, ptr %11, align 4
  call void @llvm.lifetime.end.p0(i64 8, ptr %12) #14
  call void @llvm.lifetime.end.p0(i64 4, ptr %11) #14
  ret i32 %49
}