; Function Attrs: null_pointer_is_valid sspstrong uwtable
define range(i32 -255, 256) i32 @get_CDR_wchar(ptr noundef %0, ptr noundef %1, ptr noundef writeonly captures(none) initializes((0, 8)) %2, ptr noundef captures(none) %3, ptr noundef readonly captures(none) %4) local_unnamed_addr #0 {
  store ptr null, ptr %2, align 8
  %6 = getelementptr inbounds nuw i8, ptr %4, i64 5
  %7 = load i8, ptr %6, align 1
  %8 = icmp ugt i8 %7, 1
  %.pre = load i32, ptr %3, align 4
  br i1 %8, label %9, label %.lr.ph.i

9:                                                ; preds = %5
  %10 = tail call zeroext i8 @tvb_get_uint8(ptr noundef %1, i32 noundef %.pre)
  %11 = load i32, ptr %3, align 4
  %12 = add i32 %11, 1
  store i32 %12, ptr %3, align 4
  %13 = zext i8 %10 to i32
  %.not = icmp eq i8 %10, 0
  br i1 %.not, label %35, label %.lr.ph.i

.lr.ph.i:                                         ; preds = %5, %9
  %14 = phi i32 [ %12, %9 ], [ %.pre, %5 ]
  %.016 = phi i32 [ %13, %9 ], [ 2, %5 ]
  tail call void @tvb_ensure_bytes_exist(ptr noundef %1, i32 noundef %14, i32 noundef %.016)
  %15 = add nuw nsw i32 %.016, 1
  %16 = zext nneg i32 %15 to i64
  %17 = tail call noalias ptr @wmem_alloc0(ptr noundef %0, i64 noundef %16) #18
  %18 = load i32, ptr %3, align 4
  %19 = zext nneg i32 %.016 to i64
  %20 = tail call ptr @tvb_memcpy(ptr noundef %1, ptr noundef %17, i32 noundef %18, i64 noundef %19)
  %21 = load i32, ptr %3, align 4
  %22 = add i32 %21, %.016
  store i32 %22, ptr %3, align 4
  %23 = tail call noalias ptr @wmem_alloc0(ptr noundef %0, i64 noundef %16) #18
  %24 = tail call ptr @__memcpy_chk(ptr noundef %23, ptr noundef readonly %17, i64 noundef range(i64 0, 4294967296) %19, i64 noundef %16) #17, !alias.scope !21
  %25 = load ptr, ptr @g_ascii_table, align 8
  br label %26

26:                                               ; preds = %34, %.lr.ph.i
  %indvars.iv.i = phi i64 [ 0, %.lr.ph.i ], [ %indvars.iv.next.i, %34 ]
  %27 = getelementptr i8, ptr %23, i64 %indvars.iv.i
  %28 = load i8, ptr %27, align 1
  %29 = zext i8 %28 to i64
  %30 = getelementptr i16, ptr %25, i64 %29
  %31 = load i16, ptr %30, align 2
  %32 = and i16 %31, 64
  %.not.i = icmp eq i16 %32, 0
  br i1 %.not.i, label %33, label %34

33:                                               ; preds = %26
  store i8 46, ptr %27, align 1
  br label %34

34:                                               ; preds = %33, %26
  %indvars.iv.next.i = add nuw nsw i64 %indvars.iv.i, 1
  %exitcond.not.i = icmp eq i64 %indvars.iv.next.i, %19
  br i1 %exitcond.not.i, label %make_printable_string.exit, label %26, !llvm.loop !10

make_printable_string.exit:                       ; preds = %34
  store ptr %23, ptr %2, align 8
  br label %35

35:                                               ; preds = %make_printable_string.exit, %9
  %.017 = phi i32 [ %.016, %make_printable_string.exit ], [ 0, %9 ]
  %36 = load i8, ptr %6, align 1
  %37 = icmp ult i8 %36, 2
  %38 = sub nsw i32 0, %.017
  %spec.select = select i1 %37, i32 %38, i32 %.017
  ret i32 %spec.select
}